target datalayout = "e-m:e-p270:32:32-p271:32:32-p272:64:64-i64:64-i128:128-f80:128-n8:16:32:64-S128"
target triple = "x86_64-pc-linux-gnu"

%struct.StringInfoData = type { ptr, i32, i32, i32 }
%struct.Node = type { i32 }
%struct.ErrorSaveContext = type { i32, i8, i8, ptr }
%struct.JsonPathParseResult = type { ptr, i8 }
%struct.anon = type { i32, [0 x i8] }
%struct.JsonPath = type { i32, i32, [0 x i8] }

@.str.1 = private unnamed_addr constant [11 x i8] c"jsonpath.c\00", align 1
@.str.37 = private unnamed_addr constant [39 x i8] c"invalid input syntax for type %s: \22%s\22\00", align 1
@.str.38 = private unnamed_addr constant [9 x i8] c"jsonpath\00", align 1
@__func__.jsonPathFromCstring = private unnamed_addr constant [20 x i8] c"jsonPathFromCstring\00", align 1

; Function Attrs: inlinehint nounwind uwtable
define internal i64 @PointerGetDatum(ptr noundef %0) #2 {
  %2 = alloca ptr, align 8
  store ptr %0, ptr %2, align 8
  %3 = load ptr, ptr %2, align 8
  %4 = ptrtoint ptr %3 to i64
  ret i64 %4
}

; Function Attrs: nounwind uwtable
define internal i64 @jsonPathFromCstring(ptr noundef %0, i32 noundef %1, ptr noundef %2) #0 {
  %4 = alloca i64, align 8
  %5 = alloca ptr, align 8
  %6 = alloca i32, align 4
  %7 = alloca ptr, align 8
  %8 = alloca ptr, align 8
  %9 = alloca ptr, align 8
  %10 = alloca %struct.StringInfoData, align 8
  %11 = alloca i32, align 4
  %12 = alloca ptr, align 8
  store ptr %0, ptr %5, align 8
  store i32 %1, ptr %6, align 4
  store ptr %2, ptr %7, align 8
  call void @llvm.lifetime.start.p0(i64 8, ptr %8) #9
  %13 = load ptr, ptr %5, align 8
  %14 = load i32, ptr %6, align 4
  %15 = load ptr, ptr %7, align 8
  %16 = call ptr @parsejsonpath(ptr noundef %13, i32 noundef %14, ptr noundef %15)
  store ptr %16, ptr %8, align 8
  call void @llvm.lifetime.start.p0(i64 8, ptr %9) #9
  call void @llvm.lifetime.start.p0(i64 24, ptr %10) #9
  %17 = load ptr, ptr %7, align 8
  %18 = icmp ne ptr %17, null
  br i1 %18, label %19, label %30

19:                                               ; preds = %3
  %20 = load ptr, ptr %7, align 8
  %21 = getelementptr inbounds nuw %struct.Node, ptr %20, i32 0, i32 0
  %22 = load i32, ptr %21, align 4
  %23 = icmp eq i32 %22, 446
  br i1 %23, label %24, label %30

24:                                               ; preds = %19
  %25 = load ptr, ptr %7, align 8
  %26 = getelementptr inbounds nuw %struct.ErrorSaveContext, ptr %25, i32 0, i32 1
  %27 = load i8, ptr %26, align 4, !range !4, !noundef !5
  %28 = trunc i8 %27 to i1
  br i1 %28, label %29, label %30

29:                                               ; preds = %24
  store i64 0, ptr %4, align 8
  store i32 1, ptr %11, align 4
  br label %80

30:                                               ; preds = %24, %19, %3
  %31 = load ptr, ptr %8, align 8
  %32 = icmp ne ptr %31, null
  br i1 %32, label %49, label %33

33:                                               ; preds = %30
  br label %34

34:                                               ; preds = %33
  br label %35

35:                                               ; preds = %34
  call void @llvm.lifetime.start.p0(i64 8, ptr %12) #9
  %36 = load ptr, ptr %7, align 8
  store ptr %36, ptr %12, align 8
  %37 = load ptr, ptr %12, align 8
  %38 = call zeroext i1 @errsave_start(ptr noundef %37, ptr noundef null)
  br i1 %38, label %39, label %44

39:                                               ; preds = %35
  %40 = call i32 @errcode(i32 noundef 33685634)
  %41 = load ptr, ptr %5, align 8
  %42 = call i32 (ptr, ...) @errmsg(ptr noundef @.str.37, ptr noundef @.str.38, ptr noundef %41)
  %43 = load ptr, ptr %12, align 8
  call void @errsave_finish(ptr noundef %43, ptr noundef @.str.1, i32 noundef 186, ptr noundef @__func__.jsonPathFromCstring)
  br label %44

44:                                               ; preds = %39, %35
  call void @llvm.lifetime.end.p0(i64 8, ptr %12) #9
  br label %45

45:                                               ; preds = %44
  br label %46

46:                                               ; preds = %45
  store i64 0, ptr %4, align 8
  store i32 1, ptr %11, align 4
  br label %80

47:                                               ; No predecessors!
  br label %48

48:                                               ; preds = %47
  br label %49

49:                                               ; preds = %48, %30
  call void @initStringInfo(ptr noundef %10)
  %50 = load i32, ptr %6, align 4
  %51 = mul i32 4, %50
  call void @enlargeStringInfo(ptr noundef %10, i32 noundef %51)
  call void @appendStringInfoSpaces(ptr noundef %10, i32 noundef 8)
  %52 = load ptr, ptr %7, align 8
  %53 = load ptr, ptr %8, align 8
  %54 = getelementptr inbounds nuw %struct.JsonPathParseResult, ptr %53, i32 0, i32 0
  %55 = load ptr, ptr %54, align 8
  %56 = call zeroext i1 @flattenJsonPathParseItem(ptr noundef %10, ptr noundef null, ptr noundef %52, ptr noundef %55, i32 noundef 0, i1 noundef zeroext false)
  br i1 %56, label %58, label %57

57:                                               ; preds = %49
  store i64 0, ptr %4, align 8
  store i32 1, ptr %11, align 4
  br label %80

58:                                               ; preds = %49
  %59 = getelementptr inbounds nuw %struct.StringInfoData, ptr %10, i32 0, i32 0
  %60 = load ptr, ptr %59, align 8
  store ptr %60, ptr %9, align 8
  %61 = getelementptr inbounds nuw %struct.StringInfoData, ptr %10, i32 0, i32 1
  %62 = load i32, ptr %61, align 8
  %63 = shl i32 %62, 2
  %64 = load ptr, ptr %9, align 8
  %65 = getelementptr inbounds nuw %struct.anon, ptr %64, i32 0, i32 0
  store i32 %63, ptr %65, align 4
  %66 = load ptr, ptr %9, align 8
  %67 = getelementptr inbounds nuw %struct.JsonPath, ptr %66, i32 0, i32 1
  store i32 1, ptr %67, align 4
  %68 = load ptr, ptr %8, align 8
  %69 = getelementptr inbounds nuw %struct.JsonPathParseResult, ptr %68, i32 0, i32 1
  %70 = load i8, ptr %69, align 8, !range !4, !noundef !5
  %71 = trunc i8 %70 to i1
  br i1 %71, label %72, label %77

72:                                               ; preds = %58
  %73 = load ptr, ptr %9, align 8
  %74 = getelementptr inbounds nuw %struct.JsonPath, ptr %73, i32 0, i32 1
  %75 = load i32, ptr %74, align 4
  %76 = or i32 %75, -2147483648
  store i32 %76, ptr %74, align 4
  br label %77

77:                                               ; preds = %72, %58
  %78 = load ptr, ptr %9, align 8
  %79 = call i64 @PointerGetDatum(ptr noundef %78)
  store i64 %79, ptr %4, align 8
  store i32 1, ptr %11, align 4
  br label %80

80:                                               ; preds = %77, %57, %46, %29
  call void @llvm.lifetime.end.p0(i64 24, ptr %10) #9
  call void @llvm.lifetime.end.p0(i64 8, ptr %9) #9
  call void @llvm.lifetime.end.p0(i64 8, ptr %8) #9
  %81 = load i64, ptr %4, align 8
  ret i64 %81
}