; Function Attrs: nounwind uwtable
define internal fastcc noundef i64 @jsonPathFromCstring(ptr noundef %0, i32 noundef %1, ptr noundef %2) unnamed_addr #0 {
  %4 = alloca %struct.StringInfoData, align 8
  %5 = tail call ptr @parsejsonpath(ptr noundef %0, i32 noundef %1, ptr noundef %2) #13
  call void @llvm.lifetime.start.p0(i64 24, ptr nonnull %4) #13
  %.not = icmp eq ptr %2, null
  br i1 %.not, label %13, label %6

6:                                                ; preds = %3
  %7 = load i32, ptr %2, align 4
  %8 = icmp eq i32 %7, 446
  br i1 %8, label %9, label %13

9:                                                ; preds = %6
  %10 = getelementptr inbounds nuw i8, ptr %2, i64 4
  %11 = load i8, ptr %10, align 4, !range !4, !noundef !5
  %12 = trunc nuw i8 %11 to i1
  br i1 %12, label %33, label %13

13:                                               ; preds = %9, %6, %3
  %.not21 = icmp eq ptr %5, null
  br i1 %.not21, label %14, label %19

14:                                               ; preds = %13
  %15 = tail call zeroext i1 @errsave_start(ptr noundef %2, ptr noundef null) #13
  br i1 %15, label %16, label %33

16:                                               ; preds = %14
  %17 = tail call i32 @errcode(i32 noundef 33685634) #13
  %18 = tail call i32 (ptr, ...) @errmsg(ptr noundef nonnull @.str.37, ptr noundef nonnull @.str.38, ptr noundef %0) #13
  tail call void @errsave_finish(ptr noundef %2, ptr noundef nonnull @.str.1, i32 noundef 186, ptr noundef nonnull @__func__.jsonPathFromCstring) #13
  br label %33

19:                                               ; preds = %13
  call void @initStringInfo(ptr noundef nonnull %4) #13
  %20 = shl i32 %1, 2
  call void @enlargeStringInfo(ptr noundef nonnull %4, i32 noundef %20) #13
  call void @appendStringInfoSpaces(ptr noundef nonnull %4, i32 noundef 8) #13
  %21 = load ptr, ptr %5, align 8
  %22 = call fastcc zeroext i1 @flattenJsonPathParseItem(ptr noundef %4, ptr noundef null, ptr noundef %2, ptr noundef %21, i32 noundef 0, i1 noundef zeroext false)
  br i1 %22, label %23, label %33

23:                                               ; preds = %19
  %24 = load ptr, ptr %4, align 8
  %25 = getelementptr inbounds nuw i8, ptr %4, i64 8
  %26 = load i32, ptr %25, align 8
  %27 = shl i32 %26, 2
  store i32 %27, ptr %24, align 4
  %28 = getelementptr inbounds nuw i8, ptr %24, i64 4
  store i32 1, ptr %28, align 4
  %29 = getelementptr inbounds nuw i8, ptr %5, i64 8
  %30 = load i8, ptr %29, align 8, !range !4, !noundef !5
  %31 = trunc nuw i8 %30 to i1
  %spec.store.select = select i1 %31, i32 -2147483647, i32 1
  store i32 %spec.store.select, ptr %28, align 4
  %32 = ptrtoint ptr %24 to i64
  br label %33

33:                                               ; preds = %19, %14, %16, %9, %23
  %.0 = phi i64 [ %32, %23 ], [ 0, %9 ], [ 0, %16 ], [ 0, %14 ], [ 0, %19 ]
  call void @llvm.lifetime.end.p0(i64 24, ptr nonnull %4) #13
  ret i64 %.0
}